target datalayout = "e-m:e-p270:32:32-p271:32:32-p272:64:64-i64:64-i128:128-f80:128-n8:16:32:64-S128"
target triple = "x86_64-pc-linux-gnu"

%class.Sample = type { ptr, ptr, ptr, ptr, ptr, i8, float, float, float, float, float, float, float, float, float, float, float, float, float, i32, i8, i8, i8, ptr, [9 x ptr], ptr, %class.SampleDebugDraw }
%class.SampleDebugDraw = type { %class.DebugDrawGL }
%class.DebugDrawGL = type { %struct.duDebugDraw }
%struct.duDebugDraw = type { ptr }

; Function Attrs: mustprogress uwtable
define dso_local void @_ZN6Sample23renderOverlayToolStatesEPdS0_Pi(ptr noundef nonnull align 8 dereferenceable(200) %0, ptr noundef %1, ptr noundef %2, ptr noundef %3) #2 align 2 {
  %5 = alloca ptr, align 8
  %6 = alloca ptr, align 8
  %7 = alloca ptr, align 8
  %8 = alloca ptr, align 8
  %9 = alloca i32, align 4
  store ptr %0, ptr %5, align 8
  store ptr %1, ptr %6, align 8
  store ptr %2, ptr %7, align 8
  store ptr %3, ptr %8, align 8
  %10 = load ptr, ptr %5, align 8
  store i32 0, ptr %9, align 4
  br label %11

11:                                               ; preds = %34, %4
  %12 = load i32, ptr %9, align 4
  %13 = icmp slt i32 %12, 9
  br i1 %13, label %14, label %37

14:                                               ; preds = %11
  %15 = getelementptr inbounds %class.Sample, ptr %10, i32 0, i32 24
  %16 = load i32, ptr %9, align 4
  %17 = sext i32 %16 to i64
  %18 = getelementptr inbounds [9 x ptr], ptr %15, i64 0, i64 %17
  %19 = load ptr, ptr %18, align 8
  %20 = icmp ne ptr %19, null
  br i1 %20, label %21, label %33

21:                                               ; preds = %14
  %22 = getelementptr inbounds %class.Sample, ptr %10, i32 0, i32 24
  %23 = load i32, ptr %9, align 4
  %24 = sext i32 %23 to i64
  %25 = getelementptr inbounds [9 x ptr], ptr %22, i64 0, i64 %24
  %26 = load ptr, ptr %25, align 8
  %27 = load ptr, ptr %6, align 8
  %28 = load ptr, ptr %7, align 8
  %29 = load ptr, ptr %8, align 8
  %30 = load ptr, ptr %26, align 8
  %31 = getelementptr inbounds ptr, ptr %30, i64 5
  %32 = load ptr, ptr %31, align 8
  call void %32(ptr noundef nonnull align 8 dereferenceable(8) %26, ptr noundef %27, ptr noundef %28, ptr noundef %29)
  br label %33

33:                                               ; preds = %21, %14
  br label %34

34:                                               ; preds = %33
  %35 = load i32, ptr %9, align 4
  %36 = add nsw i32 %35, 1
  store i32 %36, ptr %9, align 4
  br label %11, !llvm.loop !12

37:                                               ; preds = %11
  ret void
}