; Function Attrs: mustprogress uwtable
define dso_local void @_ZN6Sample23renderOverlayToolStatesEPdS0_Pi(ptr nocapture noundef nonnull readonly align 8 dereferenceable(200) %0, ptr noundef %1, ptr noundef %2, ptr noundef %3) local_unnamed_addr #3 align 2 {
  %5 = getelementptr inbounds i8, ptr %0, i64 112
  br label %6

6:                                                ; preds = %4, %13
  %indvars.iv = phi i64 [ 0, %4 ], [ %indvars.iv.next, %13 ]
  %7 = getelementptr inbounds [9 x ptr], ptr %5, i64 0, i64 %indvars.iv
  %8 = load ptr, ptr %7, align 8
  %.not = icmp eq ptr %8, null
  br i1 %.not, label %13, label %9

9:                                                ; preds = %6
  %10 = load ptr, ptr %8, align 8
  %11 = getelementptr inbounds i8, ptr %10, i64 40
  %12 = load ptr, ptr %11, align 8
  tail call void %12(ptr noundef nonnull align 8 dereferenceable(8) %8, ptr noundef %1, ptr noundef %2, ptr noundef %3)
  br label %13

13:                                               ; preds = %6, %9
  %indvars.iv.next = add nuw nsw i64 %indvars.iv, 1
  %exitcond.not = icmp eq i64 %indvars.iv.next, 9
  br i1 %exitcond.not, label %14, label %6, !llvm.loop !11

14:                                               ; preds = %13
  ret void
}